target datalayout = "e-m:e-p270:32:32-p271:32:32-p272:64:64-i64:64-i128:128-f80:128-n8:16:32:64-S128"
target triple = "x86_64-pc-linux-gnu"

%struct.RepeatInfo = type { i8, i32, i32, i32, i32, i32, i32, [2 x i32], i32, i32, i32, i32, i32 }
%struct.RepeatTrailerControl = type { i64, i64 }

; Function Attrs: alwaysinline nounwind uwtable
define internal i32 @clz64(i64 noundef %0) #2 {
  %2 = alloca i64, align 8
  store i64 %0, ptr %2, align 8
  %3 = load i64, ptr %2, align 8
  %4 = call i64 @llvm.ctlz.i64(i64 %3, i1 true)
  %5 = trunc i64 %4 to i32
  ret i32 %5
}

; Function Attrs: nounwind uwtable
define hidden i64 @repeatNextMatchTrailer(ptr noundef %0, ptr noundef %1, i64 noundef %2) #0 {
  %4 = alloca i64, align 8
  %5 = alloca ptr, align 8
  %6 = alloca ptr, align 8
  %7 = alloca i64, align 8
  %8 = alloca ptr, align 8
  %9 = alloca i32, align 4
  %10 = alloca i32, align 4
  %11 = alloca i64, align 8
  %12 = alloca i64, align 8
  %13 = alloca i32, align 4
  %14 = alloca i64, align 8
  store ptr %0, ptr %5, align 8
  store ptr %1, ptr %6, align 8
  store i64 %2, ptr %7, align 8
  call void @llvm.lifetime.start.p0(i64 8, ptr %8) #7
  %15 = load ptr, ptr %6, align 8
  store ptr %15, ptr %8, align 8
  call void @llvm.lifetime.start.p0(i64 4, ptr %9) #7
  %16 = load ptr, ptr %5, align 8
  %17 = getelementptr inbounds nuw %struct.RepeatInfo, ptr %16, i32 0, i32 2
  %18 = load i32, ptr %17, align 4
  %19 = load ptr, ptr %5, align 8
  %20 = getelementptr inbounds nuw %struct.RepeatInfo, ptr %19, i32 0, i32 1
  %21 = load i32, ptr %20, align 4
  %22 = sub i32 %18, %21
  store i32 %22, ptr %9, align 4
  br label %23

23:                                               ; preds = %3
  br label %24

24:                                               ; preds = %23
  br label %25

25:                                               ; preds = %24
  br label %26

26:                                               ; preds = %25
  br label %27

27:                                               ; preds = %26
  br label %28

28:                                               ; preds = %27
  %29 = load i64, ptr %7, align 8
  %30 = load ptr, ptr %8, align 8
  %31 = getelementptr inbounds nuw %struct.RepeatTrailerControl, ptr %30, i32 0, i32 0
  %32 = load i64, ptr %31, align 8
  %33 = load i32, ptr %9, align 4
  %34 = zext i32 %33 to i64
  %35 = add i64 %32, %34
  %36 = icmp uge i64 %29, %35
  br i1 %36, label %37, label %41

37:                                               ; preds = %28
  br label %38

38:                                               ; preds = %37
  br label %39

39:                                               ; preds = %38
  br label %40

40:                                               ; preds = %39
  store i64 0, ptr %4, align 8
  store i32 1, ptr %10, align 4
  br label %106

41:                                               ; preds = %28
  %42 = load i64, ptr %7, align 8
  %43 = load ptr, ptr %8, align 8
  %44 = getelementptr inbounds nuw %struct.RepeatTrailerControl, ptr %43, i32 0, i32 0
  %45 = load i64, ptr %44, align 8
  %46 = icmp uge i64 %42, %45
  br i1 %46, label %47, label %53

47:                                               ; preds = %41
  br label %48

48:                                               ; preds = %47
  br label %49

49:                                               ; preds = %48
  br label %50

50:                                               ; preds = %49
  %51 = load i64, ptr %7, align 8
  %52 = add i64 %51, 1
  store i64 %52, ptr %4, align 8
  store i32 1, ptr %10, align 4
  br label %106

53:                                               ; preds = %41
  call void @llvm.lifetime.start.p0(i64 8, ptr %11) #7
  %54 = load ptr, ptr %8, align 8
  %55 = getelementptr inbounds nuw %struct.RepeatTrailerControl, ptr %54, i32 0, i32 1
  %56 = load i64, ptr %55, align 8
  store i64 %56, ptr %11, align 8
  call void @llvm.lifetime.start.p0(i64 8, ptr %12) #7
  %57 = load ptr, ptr %8, align 8
  %58 = getelementptr inbounds nuw %struct.RepeatTrailerControl, ptr %57, i32 0, i32 0
  %59 = load i64, ptr %58, align 8
  %60 = load i64, ptr %7, align 8
  %61 = sub i64 %59, %60
  store i64 %61, ptr %12, align 8
  br label %62

62:                                               ; preds = %53
  br label %63

63:                                               ; preds = %62
  br label %64

64:                                               ; preds = %63
  %65 = load i64, ptr %12, align 8
  %66 = icmp ule i64 %65, 64
  br i1 %66, label %67, label %74

67:                                               ; preds = %64
  %68 = load i64, ptr %12, align 8
  %69 = sub i64 %68, 1
  %70 = shl i64 1, %69
  %71 = sub i64 %70, 1
  %72 = load i64, ptr %11, align 8
  %73 = and i64 %72, %71
  store i64 %73, ptr %11, align 8
  br label %74

74:                                               ; preds = %67, %64
  br label %75

75:                                               ; preds = %74
  br label %76

76:                                               ; preds = %75
  br label %77

77:                                               ; preds = %76
  %78 = load i64, ptr %11, align 8
  %79 = icmp ne i64 %78, 0
  br i1 %79, label %80, label %98

80:                                               ; preds = %77
  call void @llvm.lifetime.start.p0(i64 4, ptr %13) #7
  %81 = load i64, ptr %11, align 8
  %82 = call i32 @clz64(i64 noundef %81)
  %83 = sub i32 63, %82
  store i32 %83, ptr %13, align 4
  br label %84

84:                                               ; preds = %80
  br label %85

85:                                               ; preds = %84
  br label %86

86:                                               ; preds = %85
  br label %87

87:                                               ; preds = %86
  br label %88

88:                                               ; preds = %87
  br label %89

89:                                               ; preds = %88
  call void @llvm.lifetime.start.p0(i64 8, ptr %14) #7
  %90 = load ptr, ptr %8, align 8
  %91 = getelementptr inbounds nuw %struct.RepeatTrailerControl, ptr %90, i32 0, i32 0
  %92 = load i64, ptr %91, align 8
  %93 = load i32, ptr %13, align 4
  %94 = zext i32 %93 to i64
  %95 = sub i64 %92, %94
  %96 = sub i64 %95, 1
  store i64 %96, ptr %14, align 8
  %97 = load i64, ptr %14, align 8
  store i64 %97, ptr %4, align 8
  store i32 1, ptr %10, align 4
  call void @llvm.lifetime.end.p0(i64 8, ptr %14) #7
  call void @llvm.lifetime.end.p0(i64 4, ptr %13) #7
  br label %105

98:                                               ; preds = %77
  br label %99

99:                                               ; preds = %98
  br label %100

100:                                              ; preds = %99
  br label %101

101:                                              ; preds = %100
  %102 = load ptr, ptr %8, align 8
  %103 = getelementptr inbounds nuw %struct.RepeatTrailerControl, ptr %102, i32 0, i32 0
  %104 = load i64, ptr %103, align 8
  store i64 %104, ptr %4, align 8
  store i32 1, ptr %10, align 4
  br label %105

105:                                              ; preds = %101, %89
  call void @llvm.lifetime.end.p0(i64 8, ptr %12) #7
  call void @llvm.lifetime.end.p0(i64 8, ptr %11) #7
  br label %106

106:                                              ; preds = %105, %50, %40
  call void @llvm.lifetime.end.p0(i64 4, ptr %9) #7
  call void @llvm.lifetime.end.p0(i64 8, ptr %8) #7
  %107 = load i64, ptr %4, align 8
  ret i64 %107
}