; Function Attrs: mustprogress nofree norecurse nosync nounwind willreturn memory(argmem: read) uwtable
define hidden i64 @repeatNextMatchTrailer(ptr noundef readonly captures(none) %0, ptr noundef readonly captures(none) %1, i64 noundef %2) local_unnamed_addr #0 {
  %4 = getelementptr inbounds nuw i8, ptr %0, i64 8
  %5 = load i32, ptr %4, align 4
  %6 = getelementptr inbounds nuw i8, ptr %0, i64 4
  %7 = load i32, ptr %6, align 4
  %8 = sub i32 %5, %7
  %9 = load i64, ptr %1, align 8
  %10 = zext i32 %8 to i64
  %11 = add i64 %9, %10
  %.not = icmp ult i64 %2, %11
  br i1 %.not, label %12, label %27

12:                                               ; preds = %3
  %.not25 = icmp ult i64 %2, %9
  br i1 %.not25, label %15, label %13

13:                                               ; preds = %12
  %14 = add nuw i64 %2, 1
  br label %27

15:                                               ; preds = %12
  %16 = getelementptr inbounds nuw i8, ptr %1, i64 8
  %17 = load i64, ptr %16, align 8
  %18 = sub nuw i64 %9, %2
  %19 = icmp ult i64 %18, 65
  %20 = add nsw i64 %18, -1
  %notmask = shl nsw i64 -1, %20
  %21 = xor i64 %notmask, -1
  %22 = select i1 %19, i64 %21, i64 -1
  %.021 = and i64 %17, %22
  %.not26 = icmp eq i64 %.021, 0
  br i1 %.not26, label %27, label %23

23:                                               ; preds = %15
  %24 = tail call range(i64 0, 65) i64 @llvm.ctlz.i64(i64 range(i64 1, 0) %.021, i1 true)
  %25 = add i64 %9, -64
  %26 = add i64 %25, %24
  br label %27

27:                                               ; preds = %15, %23, %3, %13
  %.0 = phi i64 [ %14, %13 ], [ 0, %3 ], [ %26, %23 ], [ %9, %15 ]
  ret i64 %.0
}